target datalayout = "e-m:e-p270:32:32-p271:32:32-p272:64:64-i64:64-i128:128-f80:128-n8:16:32:64-S128"
target triple = "x86_64-pc-linux-gnu"

%struct.UBiDiProps = type { ptr, ptr, ptr, ptr, ptr, %struct.UTrie2, [4 x i8] }
%struct.UTrie2 = type { ptr, ptr, ptr, i32, i32, i16, i16, i32, i32, i32, i32, ptr, i32, i8, i8, i16, ptr }

; Function Attrs: mustprogress nounwind uwtable
define i32 @ubidi_getPairedBracketType_77(i32 noundef %0) #4 {
  %2 = alloca i32, align 4
  %3 = alloca i16, align 2
  store i32 %0, ptr %2, align 4, !tbaa !21
  call void @llvm.lifetime.start.p0(i64 2, ptr %3) #5
  %4 = load ptr, ptr getelementptr inbounds nuw (%struct.UBiDiProps, ptr @_ZL21ubidi_props_singleton, i32 0, i32 5), align 8, !tbaa !38
  %5 = load i32, ptr %2, align 4, !tbaa !21
  %6 = icmp ult i32 %5, 55296
  br i1 %6, label %7, label %20

7:                                                ; preds = %1
  %8 = load ptr, ptr getelementptr inbounds nuw (%struct.UBiDiProps, ptr @_ZL21ubidi_props_singleton, i32 0, i32 5), align 8, !tbaa !38
  %9 = load i32, ptr %2, align 4, !tbaa !21
  %10 = ashr i32 %9, 5
  %11 = add nsw i32 0, %10
  %12 = sext i32 %11 to i64
  %13 = getelementptr inbounds i16, ptr %8, i64 %12
  %14 = load i16, ptr %13, align 2, !tbaa !39
  %15 = zext i16 %14 to i32
  %16 = shl i32 %15, 2
  %17 = load i32, ptr %2, align 4, !tbaa !21
  %18 = and i32 %17, 31
  %19 = add nsw i32 %16, %18
  br label %75

20:                                               ; preds = %1
  %21 = load i32, ptr %2, align 4, !tbaa !21
  %22 = icmp ule i32 %21, 65535
  br i1 %22, label %23, label %39

23:                                               ; preds = %20
  %24 = load ptr, ptr getelementptr inbounds nuw (%struct.UBiDiProps, ptr @_ZL21ubidi_props_singleton, i32 0, i32 5), align 8, !tbaa !38
  %25 = load i32, ptr %2, align 4, !tbaa !21
  %26 = icmp sle i32 %25, 56319
  %27 = select i1 %26, i32 320, i32 0
  %28 = load i32, ptr %2, align 4, !tbaa !21
  %29 = ashr i32 %28, 5
  %30 = add nsw i32 %27, %29
  %31 = sext i32 %30 to i64
  %32 = getelementptr inbounds i16, ptr %24, i64 %31
  %33 = load i16, ptr %32, align 2, !tbaa !39
  %34 = zext i16 %33 to i32
  %35 = shl i32 %34, 2
  %36 = load i32, ptr %2, align 4, !tbaa !21
  %37 = and i32 %36, 31
  %38 = add nsw i32 %35, %37
  br label %73

39:                                               ; preds = %20
  %40 = load i32, ptr %2, align 4, !tbaa !21
  %41 = icmp ugt i32 %40, 1114111
  br i1 %41, label %42, label %43

42:                                               ; preds = %39
  br label %71

43:                                               ; preds = %39
  %44 = load i32, ptr %2, align 4, !tbaa !21
  %45 = icmp sge i32 %44, 1114112
  br i1 %45, label %46, label %47

46:                                               ; preds = %43
  br label %69

47:                                               ; preds = %43
  %48 = load ptr, ptr getelementptr inbounds nuw (%struct.UBiDiProps, ptr @_ZL21ubidi_props_singleton, i32 0, i32 5), align 8, !tbaa !38
  %49 = load ptr, ptr getelementptr inbounds nuw (%struct.UBiDiProps, ptr @_ZL21ubidi_props_singleton, i32 0, i32 5), align 8, !tbaa !38
  %50 = load i32, ptr %2, align 4, !tbaa !21
  %51 = ashr i32 %50, 11
  %52 = add nsw i32 2080, %51
  %53 = sext i32 %52 to i64
  %54 = getelementptr inbounds i16, ptr %49, i64 %53
  %55 = load i16, ptr %54, align 2, !tbaa !39
  %56 = zext i16 %55 to i32
  %57 = load i32, ptr %2, align 4, !tbaa !21
  %58 = ashr i32 %57, 5
  %59 = and i32 %58, 63
  %60 = add nsw i32 %56, %59
  %61 = sext i32 %60 to i64
  %62 = getelementptr inbounds i16, ptr %48, i64 %61
  %63 = load i16, ptr %62, align 2, !tbaa !39
  %64 = zext i16 %63 to i32
  %65 = shl i32 %64, 2
  %66 = load i32, ptr %2, align 4, !tbaa !21
  %67 = and i32 %66, 31
  %68 = add nsw i32 %65, %67
  br label %69

69:                                               ; preds = %47, %46
  %70 = phi i32 [ 13232, %46 ], [ %68, %47 ]
  br label %71

71:                                               ; preds = %69, %42
  %72 = phi i32 [ 3796, %42 ], [ %70, %69 ]
  br label %73

73:                                               ; preds = %71, %23
  %74 = phi i32 [ %38, %23 ], [ %72, %71 ]
  br label %75

75:                                               ; preds = %73, %7
  %76 = phi i32 [ %19, %7 ], [ %74, %73 ]
  %77 = sext i32 %76 to i64
  %78 = getelementptr inbounds i16, ptr %4, i64 %77
  %79 = load i16, ptr %78, align 2, !tbaa !39
  store i16 %79, ptr %3, align 2, !tbaa !39
  %80 = load i16, ptr %3, align 2, !tbaa !39
  %81 = zext i16 %80 to i32
  %82 = and i32 %81, 768
  %83 = ashr i32 %82, 8
  call void @llvm.lifetime.end.p0(i64 2, ptr %3) #5
  ret i32 %83
}